target datalayout = "e-m:e-p270:32:32-p271:32:32-p272:64:64-i64:64-i128:128-f80:128-n8:16:32:64-S128"
target triple = "x86_64-pc-linux-gnu"

@.str = private unnamed_addr constant [4 x i8] c"Bug\00", align 1
@.str.1 = private unnamed_addr constant [7 x i8] c"Printf\00", align 1
@.str.2 = private unnamed_addr constant [2 x i8] c"s\00", align 1
@.str.3 = private unnamed_addr constant [2 x i8] c"v\00", align 1
@.str.4 = private unnamed_addr constant [2 x i8] c"q\00", align 1
@.str.5 = private unnamed_addr constant [5 x i8] c"call\00", align 1
@.str.6 = private unnamed_addr constant [8 x i8] c"sncount\00", align 1

; Function Attrs: nounwind sspstrong uwtable
define void @Init_printf() #0 {
  %1 = alloca i64, align 8
  call void @llvm.lifetime.start.p0(i64 8, ptr %1) #20
  %2 = call i64 @rb_define_module(ptr noundef @.str)
  %3 = call i64 @rb_define_module_under(i64 noundef %2, ptr noundef @.str.1)
  store i64 %3, ptr %1, align 8, !tbaa !6
  %4 = load i64, ptr %1, align 8, !tbaa !6
  call void @rb_define_singleton_method(i64 noundef %4, ptr noundef @.str.2, ptr noundef @printf_test_s, i32 noundef 1)
  %5 = load i64, ptr %1, align 8, !tbaa !6
  call void @rb_define_singleton_method(i64 noundef %5, ptr noundef @.str.3, ptr noundef @printf_test_v, i32 noundef 1)
  %6 = load i64, ptr %1, align 8, !tbaa !6
  call void @rb_define_singleton_method(i64 noundef %6, ptr noundef @.str.4, ptr noundef @printf_test_q, i32 noundef 1)
  %7 = load i64, ptr %1, align 8, !tbaa !6
  call void @rb_define_singleton_method(i64 noundef %7, ptr noundef @.str.5, ptr noundef @printf_test_call, i32 noundef -1)
  %8 = load i64, ptr %1, align 8, !tbaa !6
  call void @rb_define_singleton_method(i64 noundef %8, ptr noundef @.str.6, ptr noundef @snprintf_count, i32 noundef 1)
  call void @llvm.lifetime.end.p0(i64 8, ptr %1) #20
  ret void
}