; Function Attrs: nounwind sspstrong uwtable
define void @Init_printf() local_unnamed_addr #0 {
  %1 = tail call i64 @rb_define_module(ptr noundef nonnull @.str) #6
  %2 = tail call i64 @rb_define_module_under(i64 noundef %1, ptr noundef nonnull @.str.1) #6
  tail call void @rb_define_singleton_method(i64 noundef %2, ptr noundef nonnull @.str.2, ptr noundef nonnull @printf_test_s, i32 noundef 1) #6
  tail call void @rb_define_singleton_method(i64 noundef %2, ptr noundef nonnull @.str.3, ptr noundef nonnull @printf_test_v, i32 noundef 1) #6
  tail call void @rb_define_singleton_method(i64 noundef %2, ptr noundef nonnull @.str.4, ptr noundef nonnull @printf_test_q, i32 noundef 1) #6
  tail call void @rb_define_singleton_method(i64 noundef %2, ptr noundef nonnull @.str.5, ptr noundef nonnull @printf_test_call, i32 noundef -1) #6
  tail call void @rb_define_singleton_method(i64 noundef %2, ptr noundef nonnull @.str.6, ptr noundef nonnull @snprintf_count, i32 noundef 1) #6
  ret void
}